; Function Attrs: mustprogress uwtable
define void @_ZNK6casadi18BSplineInterpolant20codegen_declarationsERNS_13CodeGeneratorE(ptr noundef nonnull align 8 dereferenceable(1520) %0, ptr noundef nonnull align 8 dereferenceable(3289) %1) unnamed_addr #4 align 2 {
  %3 = getelementptr inbounds nuw i8, ptr %0, i64 1440
  %4 = tail call noundef ptr @_ZNK6casadi8FunctionptEv(ptr noundef nonnull align 8 dereferenceable(8) %3)
  %5 = load ptr, ptr %4, align 8, !tbaa !47
  %6 = getelementptr inbounds nuw i8, ptr %5, i64 608
  %7 = load ptr, ptr %6, align 8
  tail call void %7(ptr noundef nonnull align 8 dereferenceable(1312) %4, ptr noundef nonnull align 8 dereferenceable(3289) %1)
  ret void
}